; Function Attrs: mustprogress nounwind uwtable
define hidden void @hermesCompileResult_free(ptr noundef %res) local_unnamed_addr #0 {
entry:
  %isnull = icmp eq ptr %res, null
  br i1 %isnull, label %delete.end, label %delete.notnull

delete.notnull:                                   ; preds = %entry
  %bytecode_.i = getelementptr inbounds i8, ptr %res, i64 32
  %0 = load ptr, ptr %bytecode_.i, align 8
  %add.ptr.i.i.i.i.i = getelementptr inbounds i8, ptr %res, i64 48
  %cmp.i.i.i.i = icmp eq ptr %0, %add.ptr.i.i.i.i.i
  br i1 %cmp.i.i.i.i, label %_ZN13CompileResultD2Ev.exit, label %if.then.i.i.i

if.then.i.i.i:                                    ; preds = %delete.notnull
  tail call void @free(ptr noundef %0) #15
  br label %_ZN13CompileResultD2Ev.exit

_ZN13CompileResultD2Ev.exit:                      ; preds = %delete.notnull, %if.then.i.i.i
  tail call void @_ZNSt7__cxx1112basic_stringIcSt11char_traitsIcESaIcEED1Ev(ptr noundef nonnull align 8 dereferenceable(32) %res) #15
  tail call void @_ZdlPv(ptr noundef nonnull %res) #16
  br label %delete.end

delete.end:                                       ; preds = %_ZN13CompileResultD2Ev.exit, %entry
  ret void
}